; ModuleID = '22/178.c'
source_filename = "22/178.c"
target datalayout = "e-m:e-p270:32:32-p271:32:32-p272:64:64-i64:64-f80:128-n8:16:32:64-S128"
target triple = "x86_64-pc-linux-gnu"

@.str = private unnamed_addr constant [5 x i8] c"%d%c\00", align 1
@.str.1 = private unnamed_addr constant [3 x i8] c"No\00", align 1
@.str.2 = private unnamed_addr constant [3 x i8] c"%d\00", align 1

; Function Attrs: noinline nounwind uwtable
define dso_local void @main() #0 {
  %1 = alloca [100 x i32], align 16
  %2 = alloca i32, align 4
  %3 = alloca i32, align 4
  %4 = alloca i32, align 4
  %5 = alloca i32, align 4
  %6 = alloca i8, align 1
  %7 = alloca i32, align 4
  store i32 0, i32* %2, align 4
  store i32 0, i32* %7, align 4
  store i32 0, i32* %3, align 4
  br label %8

8:                                                ; preds = %27, %0
  %9 = load i32, i32* %3, align 4
  %10 = sext i32 %9 to i64
  %11 = getelementptr inbounds [100 x i32], [100 x i32]* %1, i64 0, i64 %10
  %12 = call i32 (i8*, ...) @__isoc99_scanf(i8* getelementptr inbounds ([5 x i8], [5 x i8]* @.str, i64 0, i64 0), i32* %11, i8* %6)
  %13 = load i8, i8* %6, align 1
  %14 = sext i8 %13 to i32
  %15 = icmp eq i32 %14, 44
  br i1 %15, label %16, label %19

16:                                               ; preds = %8
  %17 = load i32, i32* %2, align 4
  %18 = add nsw i32 %17, 1
  store i32 %18, i32* %2, align 4
  br label %27

19:                                               ; preds = %8
  %20 = load i8, i8* %6, align 1
  %21 = sext i8 %20 to i32
  %22 = icmp eq i32 %21, 10
  br i1 %22, label %23, label %26

23:                                               ; preds = %19
  %24 = load i32, i32* %2, align 4
  %25 = add nsw i32 %24, 1
  store i32 %25, i32* %2, align 4
  br label %30

26:                                               ; preds = %19
  br label %27

27:                                               ; preds = %26, %16
  %28 = load i32, i32* %3, align 4
  %29 = add nsw i32 %28, 1
  store i32 %29, i32* %3, align 4
  br label %8

30:                                               ; preds = %23
  store i32 1, i32* %4, align 4
  br label %31

31:                                               ; preds = %76, %30
  %32 = load i32, i32* %4, align 4
  %33 = load i32, i32* %2, align 4
  %34 = icmp slt i32 %32, %33
  br i1 %34, label %35, label %79

35:                                               ; preds = %31
  store i32 0, i32* %3, align 4
  br label %36

36:                                               ; preds = %72, %35
  %37 = load i32, i32* %3, align 4
  %38 = load i32, i32* %2, align 4
  %39 = load i32, i32* %4, align 4
  %40 = sub nsw i32 %38, %39
  %41 = icmp slt i32 %37, %40
  br i1 %41, label %42, label %75

42:                                               ; preds = %36
  %43 = load i32, i32* %3, align 4
  %44 = sext i32 %43 to i64
  %45 = getelementptr inbounds [100 x i32], [100 x i32]* %1, i64 0, i64 %44
  %46 = load i32, i32* %45, align 4
  %47 = load i32, i32* %3, align 4
  %48 = add nsw i32 %47, 1
  %49 = sext i32 %48 to i64
  %50 = getelementptr inbounds [100 x i32], [100 x i32]* %1, i64 0, i64 %49
  %51 = load i32, i32* %50, align 4
  %52 = icmp slt i32 %46, %51
  br i1 %52, label %53, label %71

53:                                               ; preds = %42
  %54 = load i32, i32* %3, align 4
  %55 = sext i32 %54 to i64
  %56 = getelementptr inbounds [100 x i32], [100 x i32]* %1, i64 0, i64 %55
  %57 = load i32, i32* %56, align 4
  store i32 %57, i32* %5, align 4
  %58 = load i32, i32* %3, align 4
  %59 = add nsw i32 %58, 1
  %60 = sext i32 %59 to i64
  %61 = getelementptr inbounds [100 x i32], [100 x i32]* %1, i64 0, i64 %60
  %62 = load i32, i32* %61, align 4
  %63 = load i32, i32* %3, align 4
  %64 = sext i32 %63 to i64
  %65 = getelementptr inbounds [100 x i32], [100 x i32]* %1, i64 0, i64 %64
  store i32 %62, i32* %65, align 4
  %66 = load i32, i32* %5, align 4
  %67 = load i32, i32* %3, align 4
  %68 = add nsw i32 %67, 1
  %69 = sext i32 %68 to i64
  %70 = getelementptr inbounds [100 x i32], [100 x i32]* %1, i64 0, i64 %69
  store i32 %66, i32* %70, align 4
  br label %71

71:                                               ; preds = %53, %42
  br label %72

72:                                               ; preds = %71
  %73 = load i32, i32* %3, align 4
  %74 = add nsw i32 %73, 1
  store i32 %74, i32* %3, align 4
  br label %36

75:                                               ; preds = %36
  br label %76

76:                                               ; preds = %75
  %77 = load i32, i32* %4, align 4
  %78 = add nsw i32 %77, 1
  store i32 %78, i32* %4, align 4
  br label %31

79:                                               ; preds = %31
  %80 = load i32, i32* %2, align 4
  %81 = icmp ne i32 %80, 1
  br i1 %81, label %82, label %122

82:                                               ; preds = %79
  store i32 1, i32* %3, align 4
  br label %83

83:                                               ; preds = %110, %82
  %84 = load i32, i32* %3, align 4
  %85 = load i32, i32* %2, align 4
  %86 = icmp slt i32 %84, %85
  br i1 %86, label %87, label %113

87:                                               ; preds = %83
  %88 = load i32, i32* %3, align 4
  %89 = sext i32 %88 to i64
  %90 = getelementptr inbounds [100 x i32], [100 x i32]* %1, i64 0, i64 %89
  %91 = load i32, i32* %90, align 4
  %92 = getelementptr inbounds [100 x i32], [100 x i32]* %1, i64 0, i64 0
  %93 = load i32, i32* %92, align 16
  %94 = icmp eq i32 %91, %93
  br i1 %94, label %95, label %96

95:                                               ; preds = %87
  br label %110

96:                                               ; preds = %87
  %97 = load i32, i32* %3, align 4
  %98 = sext i32 %97 to i64
  %99 = getelementptr inbounds [100 x i32], [100 x i32]* %1, i64 0, i64 %98
  %100 = load i32, i32* %99, align 4
  %101 = getelementptr inbounds [100 x i32], [100 x i32]* %1, i64 0, i64 0
  %102 = load i32, i32* %101, align 16
  %103 = icmp slt i32 %100, %102
  br i1 %103, label %104, label %109

104:                                              ; preds = %96
  %105 = load i32, i32* %3, align 4
  %106 = sext i32 %105 to i64
  %107 = getelementptr inbounds [100 x i32], [100 x i32]* %1, i64 0, i64 %106
  %108 = load i32, i32* %107, align 4
  store i32 %108, i32* %7, align 4
  br label %113

109:                                              ; preds = %96
  br label %110

110:                                              ; preds = %109, %95
  %111 = load i32, i32* %3, align 4
  %112 = add nsw i32 %111, 1
  store i32 %112, i32* %3, align 4
  br label %83

113:                                              ; preds = %104, %83
  %114 = load i32, i32* %7, align 4
  %115 = icmp eq i32 %114, 0
  br i1 %115, label %116, label %118

116:                                              ; preds = %113
  %117 = call i32 (i8*, ...) @printf(i8* getelementptr inbounds ([3 x i8], [3 x i8]* @.str.1, i64 0, i64 0))
  br label %121

118:                                              ; preds = %113
  %119 = load i32, i32* %7, align 4
  %120 = call i32 (i8*, ...) @printf(i8* getelementptr inbounds ([3 x i8], [3 x i8]* @.str.2, i64 0, i64 0), i32 %119)
  br label %121

121:                                              ; preds = %118, %116
  br label %124

122:                                              ; preds = %79
  %123 = call i32 (i8*, ...) @printf(i8* getelementptr inbounds ([3 x i8], [3 x i8]* @.str.1, i64 0, i64 0))
  br label %124

124:                                              ; preds = %122, %121
  ret void
}

declare dso_local i32 @__isoc99_scanf(i8*, ...) #1

declare dso_local i32 @printf(i8*, ...) #1


!llvm.module.flags = !{!0}
!llvm.ident = !{!1}

!0 = !{i32 1, !"wchar_size", i32 4}
!1 = !{!"clang version 10.0.0-4ubuntu1 "}
